; ModuleID = 'bench/slurm/original/proctrack_linuxproc.ll'
source_filename = "bench/slurm/original/proctrack_linuxproc.ll"
target datalayout = "e-m:e-p270:32:32-p271:32:32-p272:64:64-i64:64-i128:128-f80:128-n8:16:32:64-S128"
target triple = "x86_64-pc-linux-gnu"

@plugin_name = dso_local local_unnamed_addr constant [33 x i8] c"Process tracking via linux /proc\00", align 16
@plugin_type = dso_local local_unnamed_addr constant [20 x i8] c"proctrack/linuxproc\00", align 16
@plugin_version = dso_local local_unnamed_addr constant i32 1639680, align 4
@.str = private unnamed_addr constant [11 x i8] c"slurmstepd\00", align 1

; Function Attrs: mustprogress nofree norecurse nosync nounwind willreturn memory(none) uwtable
define dso_local noundef i32 @init() local_unnamed_addr #0 {
  ret i32 0
}

; Function Attrs: mustprogress nofree norecurse nosync nounwind willreturn memory(none) uwtable
define dso_local noundef i32 @fini() local_unnamed_addr #0 {
  ret i32 0
}

; Function Attrs: mustprogress nofree norecurse nosync nounwind willreturn memory(argmem: readwrite) uwtable
define dso_local noundef i32 @proctrack_p_create(ptr noundef captures(none) initializes((696, 704)) %0) local_unnamed_addr #1 {
  %2 = getelementptr inbounds nuw i8, ptr %0, i64 672
  %3 = load i32, ptr %2, align 8
  %4 = sext i32 %3 to i64
  %5 = getelementptr inbounds nuw i8, ptr %0, i64 696
  store i64 %4, ptr %5, align 8
  ret i32 0
}

; Function Attrs: mustprogress nofree norecurse nosync nounwind willreturn memory(none) uwtable
define dso_local noundef i32 @proctrack_p_add(ptr noundef readnone captures(none) %0, i32 noundef %1) local_unnamed_addr #0 {
  ret i32 0
}

; Function Attrs: nounwind uwtable
define dso_local i32 @proctrack_p_signal(i64 noundef %0, i32 noundef %1) local_unnamed_addr #2 {
  %3 = trunc i64 %0 to i32
  %4 = tail call i32 @kill_proc_tree(i32 noundef %3, i32 noundef %1) #6
  ret i32 %4
}

declare i32 @kill_proc_tree(i32 noundef, i32 noundef) local_unnamed_addr #3

; Function Attrs: mustprogress nofree norecurse nosync nounwind willreturn memory(none) uwtable
define dso_local noundef i32 @proctrack_p_destroy(i64 noundef %0) local_unnamed_addr #0 {
  ret i32 0
}

; Function Attrs: nounwind uwtable
define dso_local range(i64 -2147483648, 2147483648) i64 @proctrack_p_find(i32 noundef %0) local_unnamed_addr #2 {
  %2 = tail call i32 @find_ancestor(i32 noundef %0, ptr noundef nonnull @.str) #6
  %3 = sext i32 %2 to i64
  ret i64 %3
}

declare i32 @find_ancestor(i32 noundef, ptr noundef) local_unnamed_addr #3

; Function Attrs: nounwind uwtable
define dso_local zeroext i1 @proctrack_p_has_pid(i64 noundef %0, i32 noundef %1) local_unnamed_addr #2 {
  %3 = tail call i32 @find_ancestor(i32 noundef %1, ptr noundef nonnull @.str) #6
  %4 = sext i32 %3 to i64
  %5 = icmp eq i64 %0, %4
  ret i1 %5
}

; Function Attrs: mustprogress nofree nosync nounwind willreturn memory(write, inaccessiblemem: none) uwtable
define dso_local range(i32 -1, 1) i32 @proctrack_p_wait(i64 noundef %0) local_unnamed_addr #4 {
  %or.cond = icmp ult i64 %0, 2
  br i1 %or.cond, label %2, label %4

2:                                                ; preds = %1
  %3 = tail call ptr @__errno_location() #7
  store i32 22, ptr %3, align 4
  br label %4

4:                                                ; preds = %1, %2
  %.0 = phi i32 [ -1, %2 ], [ 0, %1 ]
  ret i32 %.0
}

; Function Attrs: mustprogress nofree nosync nounwind willreturn memory(none)
declare ptr @__errno_location() local_unnamed_addr #5

; Function Attrs: nounwind uwtable
define dso_local i32 @proctrack_p_get_pids(i64 noundef %0, ptr noundef %1, ptr noundef %2) local_unnamed_addr #2 {
  %4 = trunc i64 %0 to i32
  %5 = tail call i32 @proctrack_linuxproc_get_pids(i32 noundef %4, ptr noundef %1, ptr noundef %2) #6
  ret i32 %5
}

declare i32 @proctrack_linuxproc_get_pids(i32 noundef, ptr noundef, ptr noundef) local_unnamed_addr #3


!llvm.module.flags = !{!0, !1, !2, !3, !4, !5, !6, !7}

!0 = !{i32 7, !"Dwarf Version", i32 5}
!1 = !{i32 2, !"Debug Info Version", i32 3}
!2 = !{i32 1, !"wchar_size", i32 4}
!3 = !{i32 8, !"PIC Level", i32 2}
!4 = !{i32 7, !"PIE Level", i32 2}
!5 = !{i32 7, !"uwtable", i32 2}
!6 = !{i32 7, !"frame-pointer", i32 2}
!7 = !{i32 7, !"debug-info-assignment-tracking", i1 true}
